target datalayout = "e-m:e-p270:32:32-p271:32:32-p272:64:64-i64:64-i128:128-f80:128-n8:16:32:64-S128"
target triple = "x86_64-pc-linux-gnu"

%struct.FunctionCallInfoBaseData = type { ptr, ptr, ptr, i32, i8, i16, [0 x %struct.NullableDatum] }
%struct.NullableDatum = type { i64, i8 }
%struct.GISTENTRY = type { i64, ptr, ptr, i16, i8 }
%struct.GistInetKey = type { i8, i8, i8, i8, [16 x i8] }
%struct.varattrib_1b = type { i8, [0 x i8] }
%struct.GistEntryVector = type { i32, [0 x %struct.GISTENTRY] }

; Function Attrs: inlinehint nounwind uwtable
define internal i64 @PointerGetDatum(ptr noundef %0) #2 {
  %2 = alloca ptr, align 8
  store ptr %0, ptr %2, align 8
  %3 = load ptr, ptr %2, align 8
  %4 = ptrtoint ptr %3 to i64
  ret i64 %4
}

; Function Attrs: nounwind uwtable
define internal ptr @build_inet_union_key(i32 noundef %0, i32 noundef %1, i32 noundef %2, ptr noundef %3) #0 {
  %5 = alloca i32, align 4
  %6 = alloca i32, align 4
  %7 = alloca i32, align 4
  %8 = alloca ptr, align 8
  %9 = alloca ptr, align 8
  store i32 %0, ptr %5, align 4
  store i32 %1, ptr %6, align 4
  store i32 %2, ptr %7, align 4
  store ptr %3, ptr %8, align 8
  call void @llvm.lifetime.start.p0(i64 8, ptr %9) #7
  %10 = call ptr @palloc0(i64 noundef 20)
  store ptr %10, ptr %9, align 8
  %11 = load i32, ptr %5, align 4
  %12 = trunc i32 %11 to i8
  %13 = load ptr, ptr %9, align 8
  %14 = getelementptr inbounds nuw %struct.GistInetKey, ptr %13, i32 0, i32 1
  store i8 %12, ptr %14, align 1
  %15 = load i32, ptr %6, align 4
  %16 = trunc i32 %15 to i8
  %17 = load ptr, ptr %9, align 8
  %18 = getelementptr inbounds nuw %struct.GistInetKey, ptr %17, i32 0, i32 2
  store i8 %16, ptr %18, align 1
  %19 = load i32, ptr %7, align 4
  %20 = trunc i32 %19 to i8
  %21 = load ptr, ptr %9, align 8
  %22 = getelementptr inbounds nuw %struct.GistInetKey, ptr %21, i32 0, i32 3
  store i8 %20, ptr %22, align 1
  %23 = load i32, ptr %7, align 4
  %24 = icmp sgt i32 %23, 0
  br i1 %24, label %25, label %34

25:                                               ; preds = %4
  %26 = load ptr, ptr %9, align 8
  %27 = getelementptr inbounds nuw %struct.GistInetKey, ptr %26, i32 0, i32 4
  %28 = getelementptr inbounds [16 x i8], ptr %27, i64 0, i64 0
  %29 = load ptr, ptr %8, align 8
  %30 = load i32, ptr %7, align 4
  %31 = add i32 %30, 7
  %32 = sdiv i32 %31, 8
  %33 = sext i32 %32 to i64
  call void @llvm.memcpy.p0.p0.i64(ptr align 1 %28, ptr align 1 %29, i64 %33, i1 false)
  br label %34

34:                                               ; preds = %25, %4
  %35 = load i32, ptr %7, align 4
  %36 = srem i32 %35, 8
  %37 = icmp ne i32 %36, 0
  br i1 %37, label %38, label %53

38:                                               ; preds = %34
  %39 = load i32, ptr %7, align 4
  %40 = srem i32 %39, 8
  %41 = ashr i32 255, %40
  %42 = xor i32 %41, -1
  %43 = load ptr, ptr %9, align 8
  %44 = getelementptr inbounds nuw %struct.GistInetKey, ptr %43, i32 0, i32 4
  %45 = load i32, ptr %7, align 4
  %46 = sdiv i32 %45, 8
  %47 = sext i32 %46 to i64
  %48 = getelementptr inbounds [16 x i8], ptr %44, i64 0, i64 %47
  %49 = load i8, ptr %48, align 1
  %50 = zext i8 %49 to i32
  %51 = and i32 %50, %42
  %52 = trunc i32 %51 to i8
  store i8 %52, ptr %48, align 1
  br label %53

53:                                               ; preds = %38, %34
  %54 = load ptr, ptr %9, align 8
  %55 = getelementptr inbounds nuw %struct.GistInetKey, ptr %54, i32 0, i32 1
  %56 = load i8, ptr %55, align 1
  %57 = zext i8 %56 to i32
  %58 = icmp eq i32 %57, 3
  %59 = select i1 %58, i32 16, i32 4
  %60 = sext i32 %59 to i64
  %61 = add i64 4, %60
  %62 = trunc i64 %61 to i8
  %63 = zext i8 %62 to i32
  %64 = shl i32 %63, 1
  %65 = or i32 %64, 1
  %66 = trunc i32 %65 to i8
  %67 = load ptr, ptr %9, align 8
  %68 = getelementptr inbounds nuw %struct.varattrib_1b, ptr %67, i32 0, i32 0
  store i8 %66, ptr %68, align 1
  %69 = load ptr, ptr %9, align 8
  call void @llvm.lifetime.end.p0(i64 8, ptr %9) #7
  ret ptr %69
}

; Function Attrs: nounwind uwtable
define internal void @calc_inet_union_params(ptr noundef %0, i32 noundef %1, i32 noundef %2, ptr noundef %3, ptr noundef %4, ptr noundef %5, ptr noundef %6) #0 {
  %8 = alloca ptr, align 8
  %9 = alloca i32, align 4
  %10 = alloca i32, align 4
  %11 = alloca ptr, align 8
  %12 = alloca ptr, align 8
  %13 = alloca ptr, align 8
  %14 = alloca ptr, align 8
  %15 = alloca i32, align 4
  %16 = alloca i32, align 4
  %17 = alloca i32, align 4
  %18 = alloca i32, align 4
  %19 = alloca ptr, align 8
  %20 = alloca ptr, align 8
  %21 = alloca i32, align 4
  store ptr %0, ptr %8, align 8
  store i32 %1, ptr %9, align 4
  store i32 %2, ptr %10, align 4
  store ptr %3, ptr %11, align 8
  store ptr %4, ptr %12, align 8
  store ptr %5, ptr %13, align 8
  store ptr %6, ptr %14, align 8
  call void @llvm.lifetime.start.p0(i64 4, ptr %15) #7
  call void @llvm.lifetime.start.p0(i64 4, ptr %16) #7
  call void @llvm.lifetime.start.p0(i64 4, ptr %17) #7
  call void @llvm.lifetime.start.p0(i64 4, ptr %18) #7
  call void @llvm.lifetime.start.p0(i64 8, ptr %19) #7
  call void @llvm.lifetime.start.p0(i64 8, ptr %20) #7
  call void @llvm.lifetime.start.p0(i64 4, ptr %21) #7
  %22 = load ptr, ptr %8, align 8
  %23 = load i32, ptr %9, align 4
  %24 = sext i32 %23 to i64
  %25 = getelementptr inbounds %struct.GISTENTRY, ptr %22, i64 %24
  %26 = getelementptr inbounds nuw %struct.GISTENTRY, ptr %25, i32 0, i32 0
  %27 = load i64, ptr %26, align 8
  %28 = call ptr @DatumGetPointer(i64 noundef %27)
  store ptr %28, ptr %20, align 8
  %29 = load ptr, ptr %20, align 8
  %30 = getelementptr inbounds nuw %struct.GistInetKey, ptr %29, i32 0, i32 1
  %31 = load i8, ptr %30, align 1
  %32 = zext i8 %31 to i32
  store i32 %32, ptr %16, align 4
  store i32 %32, ptr %15, align 4
  %33 = load ptr, ptr %20, align 8
  %34 = getelementptr inbounds nuw %struct.GistInetKey, ptr %33, i32 0, i32 2
  %35 = load i8, ptr %34, align 1
  %36 = zext i8 %35 to i32
  store i32 %36, ptr %17, align 4
  %37 = load ptr, ptr %20, align 8
  %38 = getelementptr inbounds nuw %struct.GistInetKey, ptr %37, i32 0, i32 3
  %39 = load i8, ptr %38, align 1
  %40 = zext i8 %39 to i32
  store i32 %40, ptr %18, align 4
  %41 = load ptr, ptr %20, align 8
  %42 = getelementptr inbounds nuw %struct.GistInetKey, ptr %41, i32 0, i32 4
  %43 = getelementptr inbounds [16 x i8], ptr %42, i64 0, i64 0
  store ptr %43, ptr %19, align 8
  %44 = load i32, ptr %9, align 4
  %45 = add i32 %44, 1
  store i32 %45, ptr %21, align 4
  br label %46

46:                                               ; preds = %116, %7
  %47 = load i32, ptr %21, align 4
  %48 = load i32, ptr %10, align 4
  %49 = icmp sle i32 %47, %48
  br i1 %49, label %50, label %119

50:                                               ; preds = %46
  %51 = load ptr, ptr %8, align 8
  %52 = load i32, ptr %21, align 4
  %53 = sext i32 %52 to i64
  %54 = getelementptr inbounds %struct.GISTENTRY, ptr %51, i64 %53
  %55 = getelementptr inbounds nuw %struct.GISTENTRY, ptr %54, i32 0, i32 0
  %56 = load i64, ptr %55, align 8
  %57 = call ptr @DatumGetPointer(i64 noundef %56)
  store ptr %57, ptr %20, align 8
  %58 = load i32, ptr %15, align 4
  %59 = load ptr, ptr %20, align 8
  %60 = getelementptr inbounds nuw %struct.GistInetKey, ptr %59, i32 0, i32 1
  %61 = load i8, ptr %60, align 1
  %62 = zext i8 %61 to i32
  %63 = icmp sgt i32 %58, %62
  br i1 %63, label %64, label %69

64:                                               ; preds = %50
  %65 = load ptr, ptr %20, align 8
  %66 = getelementptr inbounds nuw %struct.GistInetKey, ptr %65, i32 0, i32 1
  %67 = load i8, ptr %66, align 1
  %68 = zext i8 %67 to i32
  store i32 %68, ptr %15, align 4
  br label %69

69:                                               ; preds = %64, %50
  %70 = load i32, ptr %16, align 4
  %71 = load ptr, ptr %20, align 8
  %72 = getelementptr inbounds nuw %struct.GistInetKey, ptr %71, i32 0, i32 1
  %73 = load i8, ptr %72, align 1
  %74 = zext i8 %73 to i32
  %75 = icmp slt i32 %70, %74
  br i1 %75, label %76, label %81

76:                                               ; preds = %69
  %77 = load ptr, ptr %20, align 8
  %78 = getelementptr inbounds nuw %struct.GistInetKey, ptr %77, i32 0, i32 1
  %79 = load i8, ptr %78, align 1
  %80 = zext i8 %79 to i32
  store i32 %80, ptr %16, align 4
  br label %81

81:                                               ; preds = %76, %69
  %82 = load i32, ptr %17, align 4
  %83 = load ptr, ptr %20, align 8
  %84 = getelementptr inbounds nuw %struct.GistInetKey, ptr %83, i32 0, i32 2
  %85 = load i8, ptr %84, align 1
  %86 = zext i8 %85 to i32
  %87 = icmp sgt i32 %82, %86
  br i1 %87, label %88, label %93

88:                                               ; preds = %81
  %89 = load ptr, ptr %20, align 8
  %90 = getelementptr inbounds nuw %struct.GistInetKey, ptr %89, i32 0, i32 2
  %91 = load i8, ptr %90, align 1
  %92 = zext i8 %91 to i32
  store i32 %92, ptr %17, align 4
  br label %93

93:                                               ; preds = %88, %81
  %94 = load i32, ptr %18, align 4
  %95 = load ptr, ptr %20, align 8
  %96 = getelementptr inbounds nuw %struct.GistInetKey, ptr %95, i32 0, i32 3
  %97 = load i8, ptr %96, align 1
  %98 = zext i8 %97 to i32
  %99 = icmp sgt i32 %94, %98
  br i1 %99, label %100, label %105

100:                                              ; preds = %93
  %101 = load ptr, ptr %20, align 8
  %102 = getelementptr inbounds nuw %struct.GistInetKey, ptr %101, i32 0, i32 3
  %103 = load i8, ptr %102, align 1
  %104 = zext i8 %103 to i32
  store i32 %104, ptr %18, align 4
  br label %105

105:                                              ; preds = %100, %93
  %106 = load i32, ptr %18, align 4
  %107 = icmp sgt i32 %106, 0
  br i1 %107, label %108, label %115

108:                                              ; preds = %105
  %109 = load ptr, ptr %19, align 8
  %110 = load ptr, ptr %20, align 8
  %111 = getelementptr inbounds nuw %struct.GistInetKey, ptr %110, i32 0, i32 4
  %112 = getelementptr inbounds [16 x i8], ptr %111, i64 0, i64 0
  %113 = load i32, ptr %18, align 4
  %114 = call i32 @bitncommon(ptr noundef %109, ptr noundef %112, i32 noundef %113)
  store i32 %114, ptr %18, align 4
  br label %115

115:                                              ; preds = %108, %105
  br label %116

116:                                              ; preds = %115
  %117 = load i32, ptr %21, align 4
  %118 = add i32 %117, 1
  store i32 %118, ptr %21, align 4
  br label %46, !llvm.loop !6

119:                                              ; preds = %46
  %120 = load i32, ptr %15, align 4
  %121 = load i32, ptr %16, align 4
  %122 = icmp ne i32 %120, %121
  br i1 %122, label %123, label %124

123:                                              ; preds = %119
  store i32 0, ptr %18, align 4
  store i32 0, ptr %17, align 4
  br label %124

124:                                              ; preds = %123, %119
  %125 = load i32, ptr %15, align 4
  %126 = load ptr, ptr %11, align 8
  store i32 %125, ptr %126, align 4
  %127 = load i32, ptr %16, align 4
  %128 = load ptr, ptr %12, align 8
  store i32 %127, ptr %128, align 4
  %129 = load i32, ptr %17, align 4
  %130 = load ptr, ptr %13, align 8
  store i32 %129, ptr %130, align 4
  %131 = load i32, ptr %18, align 4
  %132 = load ptr, ptr %14, align 8
  store i32 %131, ptr %132, align 4
  call void @llvm.lifetime.end.p0(i64 4, ptr %21) #7
  call void @llvm.lifetime.end.p0(i64 8, ptr %20) #7
  call void @llvm.lifetime.end.p0(i64 8, ptr %19) #7
  call void @llvm.lifetime.end.p0(i64 4, ptr %18) #7
  call void @llvm.lifetime.end.p0(i64 4, ptr %17) #7
  call void @llvm.lifetime.end.p0(i64 4, ptr %16) #7
  call void @llvm.lifetime.end.p0(i64 4, ptr %15) #7
  ret void
}

; Function Attrs: inlinehint nounwind uwtable
define internal ptr @DatumGetPointer(i64 noundef %0) #2 {
  %2 = alloca i64, align 8
  store i64 %0, ptr %2, align 8
  %3 = load i64, ptr %2, align 8
  %4 = inttoptr i64 %3 to ptr
  ret ptr %4
}

; Function Attrs: nounwind uwtable
define dso_local i64 @inet_gist_union(ptr noundef %0) #0 {
  %2 = alloca ptr, align 8
  %3 = alloca ptr, align 8
  %4 = alloca ptr, align 8
  %5 = alloca i32, align 4
  %6 = alloca i32, align 4
  %7 = alloca i32, align 4
  %8 = alloca i32, align 4
  %9 = alloca ptr, align 8
  %10 = alloca ptr, align 8
  %11 = alloca ptr, align 8
  store ptr %0, ptr %2, align 8
  call void @llvm.lifetime.start.p0(i64 8, ptr %3) #7
  %12 = load ptr, ptr %2, align 8
  %13 = getelementptr inbounds nuw %struct.FunctionCallInfoBaseData, ptr %12, i32 0, i32 6
  %14 = getelementptr inbounds [0 x %struct.NullableDatum], ptr %13, i64 0, i64 0
  %15 = getelementptr inbounds nuw %struct.NullableDatum, ptr %14, i32 0, i32 0
  %16 = load i64, ptr %15, align 8
  %17 = call ptr @DatumGetPointer(i64 noundef %16)
  store ptr %17, ptr %3, align 8
  call void @llvm.lifetime.start.p0(i64 8, ptr %4) #7
  %18 = load ptr, ptr %3, align 8
  %19 = getelementptr inbounds nuw %struct.GistEntryVector, ptr %18, i32 0, i32 1
  %20 = getelementptr inbounds [0 x %struct.GISTENTRY], ptr %19, i64 0, i64 0
  store ptr %20, ptr %4, align 8
  call void @llvm.lifetime.start.p0(i64 4, ptr %5) #7
  call void @llvm.lifetime.start.p0(i64 4, ptr %6) #7
  call void @llvm.lifetime.start.p0(i64 4, ptr %7) #7
  call void @llvm.lifetime.start.p0(i64 4, ptr %8) #7
  call void @llvm.lifetime.start.p0(i64 8, ptr %9) #7
  call void @llvm.lifetime.start.p0(i64 8, ptr %10) #7
  call void @llvm.lifetime.start.p0(i64 8, ptr %11) #7
  %21 = load ptr, ptr %4, align 8
  %22 = load ptr, ptr %3, align 8
  %23 = getelementptr inbounds nuw %struct.GistEntryVector, ptr %22, i32 0, i32 0
  %24 = load i32, ptr %23, align 8
  %25 = sub i32 %24, 1
  call void @calc_inet_union_params(ptr noundef %21, i32 noundef 0, i32 noundef %25, ptr noundef %5, ptr noundef %6, ptr noundef %7, ptr noundef %8)
  %26 = load i32, ptr %5, align 4
  %27 = load i32, ptr %6, align 4
  %28 = icmp ne i32 %26, %27
  br i1 %28, label %29, label %30

29:                                               ; preds = %1
  store i32 0, ptr %5, align 4
  br label %30

30:                                               ; preds = %29, %1
  %31 = load ptr, ptr %4, align 8
  %32 = getelementptr inbounds %struct.GISTENTRY, ptr %31, i64 0
  %33 = getelementptr inbounds nuw %struct.GISTENTRY, ptr %32, i32 0, i32 0
  %34 = load i64, ptr %33, align 8
  %35 = call ptr @DatumGetPointer(i64 noundef %34)
  store ptr %35, ptr %10, align 8
  %36 = load ptr, ptr %10, align 8
  %37 = getelementptr inbounds nuw %struct.GistInetKey, ptr %36, i32 0, i32 4
  %38 = getelementptr inbounds [16 x i8], ptr %37, i64 0, i64 0
  store ptr %38, ptr %9, align 8
  %39 = load i32, ptr %5, align 4
  %40 = load i32, ptr %7, align 4
  %41 = load i32, ptr %8, align 4
  %42 = load ptr, ptr %9, align 8
  %43 = call ptr @build_inet_union_key(i32 noundef %39, i32 noundef %40, i32 noundef %41, ptr noundef %42)
  store ptr %43, ptr %11, align 8
  %44 = load ptr, ptr %11, align 8
  %45 = call i64 @PointerGetDatum(ptr noundef %44)
  call void @llvm.lifetime.end.p0(i64 8, ptr %11) #7
  call void @llvm.lifetime.end.p0(i64 8, ptr %10) #7
  call void @llvm.lifetime.end.p0(i64 8, ptr %9) #7
  call void @llvm.lifetime.end.p0(i64 4, ptr %8) #7
  call void @llvm.lifetime.end.p0(i64 4, ptr %7) #7
  call void @llvm.lifetime.end.p0(i64 4, ptr %6) #7
  call void @llvm.lifetime.end.p0(i64 4, ptr %5) #7
  call void @llvm.lifetime.end.p0(i64 8, ptr %4) #7
  call void @llvm.lifetime.end.p0(i64 8, ptr %3) #7
  ret i64 %45
}