; Function Attrs: nounwind uwtable
define dso_local i64 @inet_gist_union(ptr noundef readonly captures(none) %0) local_unnamed_addr #0 {
  %2 = getelementptr inbounds nuw i8, ptr %0, i64 32
  %3 = load i64, ptr %2, align 8
  %4 = inttoptr i64 %3 to ptr
  %5 = getelementptr inbounds nuw i8, ptr %4, i64 8
  %6 = load i32, ptr %4, align 8
  %7 = add i32 %6, -1
  %8 = load i64, ptr %5, align 8
  %9 = inttoptr i64 %8 to ptr
  %10 = getelementptr inbounds nuw i8, ptr %9, i64 1
  %11 = load i8, ptr %10, align 1
  %12 = zext i8 %11 to i32
  %13 = getelementptr inbounds nuw i8, ptr %9, i64 2
  %14 = load i8, ptr %13, align 1
  %15 = zext i8 %14 to i32
  %16 = getelementptr inbounds nuw i8, ptr %9, i64 3
  %17 = load i8, ptr %16, align 1
  %18 = zext i8 %17 to i32
  %19 = getelementptr inbounds nuw i8, ptr %9, i64 4
  %.not53.not.i = icmp sgt i32 %7, 0
  br i1 %.not53.not.i, label %.lr.ph.i, label %calc_inet_union_params.exit.thread

.lr.ph.i:                                         ; preds = %1, %37
  %.058.i = phi i32 [ %.0.i, %37 ], [ 1, %1 ]
  %.03757.i = phi i32 [ %spec.select.i, %37 ], [ %12, %1 ]
  %.03856.i = phi i32 [ %.2.i, %37 ], [ %18, %1 ]
  %.04055.i = phi i32 [ %.141.i, %37 ], [ %15, %1 ]
  %.04354.i = phi i32 [ %.144.i, %37 ], [ %12, %1 ]
  %20 = sext i32 %.058.i to i64
  %21 = getelementptr inbounds %struct.GISTENTRY, ptr %5, i64 %20
  %22 = load i64, ptr %21, align 8
  %23 = inttoptr i64 %22 to ptr
  %24 = getelementptr inbounds nuw i8, ptr %23, i64 1
  %25 = load i8, ptr %24, align 1
  %26 = zext i8 %25 to i32
  %spec.select.i = tail call i32 @llvm.umin.i32(i32 %.03757.i, i32 %26)
  %.144.i = tail call i32 @llvm.umax.i32(i32 %.04354.i, i32 %26)
  %27 = getelementptr inbounds nuw i8, ptr %23, i64 2
  %28 = load i8, ptr %27, align 1
  %29 = zext i8 %28 to i32
  %.141.i = tail call i32 @llvm.umin.i32(i32 %.04055.i, i32 %29)
  %30 = getelementptr inbounds nuw i8, ptr %23, i64 3
  %31 = load i8, ptr %30, align 1
  %32 = zext i8 %31 to i32
  %.139.i = tail call i32 @llvm.smin.i32(i32 %.03856.i, i32 %32)
  %33 = icmp sgt i32 %.139.i, 0
  br i1 %33, label %34, label %37

34:                                               ; preds = %.lr.ph.i
  %35 = getelementptr inbounds nuw i8, ptr %23, i64 4
  %36 = tail call i32 @bitncommon(ptr noundef nonnull %19, ptr noundef nonnull %35, i32 noundef %.139.i) #8
  br label %37

37:                                               ; preds = %34, %.lr.ph.i
  %.2.i = phi i32 [ %36, %34 ], [ %.139.i, %.lr.ph.i ]
  %.0.i = add i32 %.058.i, 1
  %.not.i = icmp sgt i32 %.0.i, %7
  br i1 %.not.i, label %calc_inet_union_params.exit, label %.lr.ph.i, !llvm.loop !4

calc_inet_union_params.exit:                      ; preds = %37
  %.not49.i = icmp eq i32 %spec.select.i, %.144.i
  br i1 %.not49.i, label %calc_inet_union_params.exit.thread, label %38

38:                                               ; preds = %calc_inet_union_params.exit
  br label %calc_inet_union_params.exit.thread

calc_inet_union_params.exit.thread:               ; preds = %1, %38, %calc_inet_union_params.exit
  %spec.select51.i21 = phi i32 [ %.2.i, %calc_inet_union_params.exit ], [ 0, %38 ], [ %18, %1 ]
  %spec.select50.i20 = phi i32 [ %.141.i, %calc_inet_union_params.exit ], [ 0, %38 ], [ %15, %1 ]
  %.0 = phi i32 [ %spec.select.i, %calc_inet_union_params.exit ], [ 0, %38 ], [ %12, %1 ]
  %39 = load i64, ptr %5, align 8
  %40 = tail call ptr @palloc0(i64 noundef 20) #8
  %41 = trunc nuw i32 %.0 to i8
  %42 = getelementptr inbounds nuw i8, ptr %40, i64 1
  store i8 %41, ptr %42, align 1
  %43 = trunc nuw i32 %spec.select50.i20 to i8
  %44 = getelementptr inbounds nuw i8, ptr %40, i64 2
  store i8 %43, ptr %44, align 1
  %45 = trunc i32 %spec.select51.i21 to i8
  %46 = getelementptr inbounds nuw i8, ptr %40, i64 3
  store i8 %45, ptr %46, align 1
  %47 = icmp sgt i32 %spec.select51.i21, 0
  br i1 %47, label %48, label %55

48:                                               ; preds = %calc_inet_union_params.exit.thread
  %49 = inttoptr i64 %39 to ptr
  %50 = getelementptr inbounds nuw i8, ptr %49, i64 4
  %51 = getelementptr inbounds nuw i8, ptr %40, i64 4
  %52 = add nuw i32 %spec.select51.i21, 7
  %53 = sdiv i32 %52, 8
  %54 = sext i32 %53 to i64
  tail call void @llvm.memcpy.p0.p0.i64(ptr nonnull align 1 %51, ptr nonnull readonly align 1 %50, i64 %54, i1 false)
  br label %55

55:                                               ; preds = %48, %calc_inet_union_params.exit.thread
  %56 = srem i32 %spec.select51.i21, 8
  %57 = sdiv i32 %spec.select51.i21, 8
  %.not.i8 = icmp eq i32 %56, 0
  br i1 %.not.i8, label %build_inet_union_key.exit, label %58

58:                                               ; preds = %55
  %59 = ashr i32 -256, %56
  %60 = getelementptr inbounds nuw i8, ptr %40, i64 4
  %61 = sext i32 %57 to i64
  %62 = getelementptr inbounds [16 x i8], ptr %60, i64 0, i64 %61
  %63 = load i8, ptr %62, align 1
  %64 = trunc i32 %59 to i8
  %65 = and i8 %63, %64
  store i8 %65, ptr %62, align 1
  %.pre.i = load i8, ptr %42, align 1
  br label %build_inet_union_key.exit

build_inet_union_key.exit:                        ; preds = %55, %58
  %66 = phi i8 [ %.pre.i, %58 ], [ %41, %55 ]
  %67 = icmp eq i8 %66, 3
  %68 = select i1 %67, i8 41, i8 17
  store i8 %68, ptr %40, align 1
  %69 = ptrtoint ptr %40 to i64
  ret i64 %69
}